target datalayout = "e-m:e-p270:32:32-p271:32:32-p272:64:64-i64:64-i128:128-f80:128-n8:16:32:64-S128"
target triple = "x86_64-pc-linux-gnu"

%struct._zend_array = type { %struct._zend_refcounted_h, %union.anon.0, i32, %union.anon.1, i32, i32, i32, i32, i64, ptr }
%struct._zend_refcounted_h = type { i32, %union.anon }
%union.anon = type { i32 }
%union.anon.0 = type { i32 }
%union.anon.1 = type { ptr }
%struct._zval_struct = type { %union._zend_value, %union.anon.3, %union.anon.6 }
%union._zend_value = type { i64 }
%union.anon.3 = type { i32 }
%union.anon.6 = type { i32 }
%struct._Bucket = type { %struct._zval_struct, i64, ptr }
%struct._zend_reference = type { %struct._zend_refcounted_h, %struct._zval_struct, %union.zend_property_info_source_list }
%union.zend_property_info_source_list = type { ptr }
%struct.anon.4 = type { i8, i8, %union.anon.5 }
%union.anon.5 = type { i16 }

@uninitialized_bucket = internal constant [2 x i32] [i32 -1, i32 -1], align 4
@.str = private unnamed_addr constant [64 x i8] c"Possible integer overflow in memory allocation (%u * %zu + %zu)\00", align 1

; Function Attrs: nounwind uwtable
define ptr @_zend_new_array(i32 noundef %0) #0 {
  %2 = alloca ptr, align 8
  %3 = alloca i32, align 4
  %4 = alloca i32, align 4
  %5 = alloca i32, align 4
  %6 = alloca ptr, align 8
  %7 = alloca i32, align 4
  %8 = alloca ptr, align 8
  %9 = alloca i8, align 1
  %10 = alloca i32, align 4
  %11 = alloca ptr, align 8
  store i32 %0, ptr %10, align 4
  %12 = call noalias ptr @_emalloc_56()
  store ptr %12, ptr %11, align 8
  %13 = load ptr, ptr %11, align 8
  %14 = load i32, ptr %10, align 4
  store ptr %13, ptr %6, align 8
  store i32 %14, ptr %7, align 4
  store ptr @zval_ptr_dtor, ptr %8, align 8
  store i8 0, ptr %9, align 1
  %15 = load ptr, ptr %6, align 8
  store ptr %15, ptr %2, align 8
  store i32 1, ptr %3, align 4
  %16 = load i32, ptr %3, align 4
  %17 = load ptr, ptr %2, align 8
  store i32 %16, ptr %17, align 4
  %18 = load i8, ptr %9, align 1
  %19 = trunc i8 %18 to i1
  %20 = select i1 %19, i32 144, i32 0
  %21 = or i32 7, %20
  %22 = load ptr, ptr %6, align 8
  %23 = getelementptr inbounds %struct._zend_refcounted_h, ptr %22, i32 0, i32 1
  store i32 %21, ptr %23, align 4
  %24 = load ptr, ptr %6, align 8
  %25 = getelementptr inbounds %struct._zend_array, ptr %24, i32 0, i32 1
  store i32 8, ptr %25, align 8
  %26 = load ptr, ptr %6, align 8
  %27 = getelementptr inbounds %struct._zend_array, ptr %26, i32 0, i32 2
  store i32 -2, ptr %27, align 4
  %28 = load ptr, ptr %6, align 8
  %29 = getelementptr inbounds %struct._zend_array, ptr %28, i32 0, i32 2
  %30 = load i32, ptr %29, align 4
  %31 = sub i32 0, %30
  %32 = zext i32 %31 to i64
  %33 = mul i64 %32, 4
  %34 = getelementptr inbounds i8, ptr @uninitialized_bucket, i64 %33
  %35 = load ptr, ptr %6, align 8
  %36 = getelementptr inbounds %struct._zend_array, ptr %35, i32 0, i32 3
  store ptr %34, ptr %36, align 8
  %37 = load ptr, ptr %6, align 8
  %38 = getelementptr inbounds %struct._zend_array, ptr %37, i32 0, i32 4
  store i32 0, ptr %38, align 8
  %39 = load ptr, ptr %6, align 8
  %40 = getelementptr inbounds %struct._zend_array, ptr %39, i32 0, i32 5
  store i32 0, ptr %40, align 4
  %41 = load ptr, ptr %6, align 8
  %42 = getelementptr inbounds %struct._zend_array, ptr %41, i32 0, i32 7
  store i32 0, ptr %42, align 4
  %43 = load ptr, ptr %6, align 8
  %44 = getelementptr inbounds %struct._zend_array, ptr %43, i32 0, i32 8
  store i64 -9223372036854775808, ptr %44, align 8
  %45 = load ptr, ptr %8, align 8
  %46 = load ptr, ptr %6, align 8
  %47 = getelementptr inbounds %struct._zend_array, ptr %46, i32 0, i32 9
  store ptr %45, ptr %47, align 8
  %48 = load i32, ptr %7, align 4
  store i32 %48, ptr %5, align 4
  %49 = load i32, ptr %5, align 4
  %50 = icmp ule i32 %49, 8
  br i1 %50, label %51, label %52

51:                                               ; preds = %1
  store i32 8, ptr %4, align 4
  br label %63

52:                                               ; preds = %1
  %53 = load i32, ptr %5, align 4
  %54 = icmp ugt i32 %53, 1073741824
  br i1 %54, label %55, label %57

55:                                               ; preds = %52
  %56 = load i32, ptr %5, align 4
  call void (i32, ptr, ...) @zend_error_noreturn(i32 noundef 1, ptr noundef @.str, i32 noundef %56, i64 noundef 32, i64 noundef 32) #16
  unreachable

57:                                               ; preds = %52
  %58 = load i32, ptr %5, align 4
  %59 = sub i32 %58, 1
  %60 = call i32 @llvm.ctlz.i32(i32 %59, i1 true)
  %61 = xor i32 %60, 31
  %62 = shl i32 2, %61
  store i32 %62, ptr %4, align 4
  br label %63

63:                                               ; preds = %57, %51
  %64 = load i32, ptr %4, align 4
  %65 = load ptr, ptr %6, align 8
  %66 = getelementptr inbounds %struct._zend_array, ptr %65, i32 0, i32 6
  store i32 %64, ptr %66, align 8
  %67 = load ptr, ptr %11, align 8
  ret ptr %67
}

; Function Attrs: nounwind uwtable
define ptr @zend_symtable_to_proptable(ptr noundef %0) #0 {
  %2 = alloca ptr, align 8
  %3 = alloca i32, align 4
  %4 = alloca i32, align 4
  %5 = alloca ptr, align 8
  %6 = alloca ptr, align 8
  %7 = alloca ptr, align 8
  %8 = alloca ptr, align 8
  %9 = alloca ptr, align 8
  %10 = alloca ptr, align 8
  %11 = alloca ptr, align 8
  %12 = alloca ptr, align 8
  %13 = alloca ptr, align 8
  %14 = alloca ptr, align 8
  %15 = alloca i32, align 4
  %16 = alloca ptr, align 8
  %17 = alloca ptr, align 8
  %18 = alloca i64, align 8
  %19 = alloca ptr, align 8
  %20 = alloca ptr, align 8
  %21 = alloca ptr, align 8
  %22 = alloca ptr, align 8
  %23 = alloca ptr, align 8
  %24 = alloca ptr, align 8
  %25 = alloca ptr, align 8
  %26 = alloca ptr, align 8
  %27 = alloca i64, align 8
  %28 = alloca ptr, align 8
  %29 = alloca i32, align 4
  %30 = alloca i64, align 8
  %31 = alloca ptr, align 8
  %32 = alloca i32, align 4
  %33 = alloca ptr, align 8
  %34 = alloca ptr, align 8
  store ptr %0, ptr %17, align 8
  %35 = load ptr, ptr %17, align 8
  %36 = getelementptr inbounds %struct._zend_array, ptr %35, i32 0, i32 1
  %37 = load i32, ptr %36, align 8
  %38 = and i32 %37, 4
  %39 = icmp ne i32 %38, 0
  %40 = xor i1 %39, true
  %41 = xor i1 %40, true
  %42 = zext i1 %41 to i32
  %43 = sext i32 %42 to i64
  %44 = icmp ne i64 %43, 0
  br i1 %44, label %45, label %46

45:                                               ; preds = %1
  br label %115

46:                                               ; preds = %1
  br label %47

47:                                               ; preds = %46
  %48 = load ptr, ptr %17, align 8
  store ptr %48, ptr %21, align 8
  %49 = load ptr, ptr %21, align 8
  %50 = getelementptr inbounds %struct._zend_array, ptr %49, i32 0, i32 3
  %51 = load ptr, ptr %50, align 8
  %52 = getelementptr inbounds %struct._Bucket, ptr %51, i64 0
  store ptr %52, ptr %22, align 8
  %53 = load ptr, ptr %21, align 8
  %54 = getelementptr inbounds %struct._zend_array, ptr %53, i32 0, i32 3
  %55 = load ptr, ptr %54, align 8
  %56 = load ptr, ptr %21, align 8
  %57 = getelementptr inbounds %struct._zend_array, ptr %56, i32 0, i32 4
  %58 = load i32, ptr %57, align 8
  %59 = zext i32 %58 to i64
  %60 = getelementptr inbounds %struct._Bucket, ptr %55, i64 %59
  store ptr %60, ptr %23, align 8
  %61 = load ptr, ptr %21, align 8
  %62 = getelementptr inbounds %struct._zend_array, ptr %61, i32 0, i32 1
  %63 = load i32, ptr %62, align 8
  %64 = and i32 %63, 4
  %65 = icmp ne i32 %64, 0
  %66 = xor i1 %65, true
  call void @llvm.assume(i1 %66)
  br label %67

67:                                               ; preds = %94, %47
  %68 = load ptr, ptr %22, align 8
  %69 = load ptr, ptr %23, align 8
  %70 = icmp ne ptr %68, %69
  br i1 %70, label %71, label %97

71:                                               ; preds = %67
  %72 = load ptr, ptr %22, align 8
  %73 = getelementptr inbounds %struct._Bucket, ptr %72, i32 0, i32 0
  store ptr %73, ptr %24, align 8
  %74 = load ptr, ptr %24, align 8
  store ptr %74, ptr %12, align 8
  %75 = load ptr, ptr %12, align 8
  %76 = getelementptr inbounds %struct._zval_struct, ptr %75, i32 0, i32 1
  %77 = load i8, ptr %76, align 8
  %78 = zext i8 %77 to i32
  %79 = icmp eq i32 %78, 0
  %80 = xor i1 %79, true
  %81 = xor i1 %80, true
  %82 = zext i1 %81 to i32
  %83 = sext i32 %82 to i64
  %84 = icmp ne i64 %83, 0
  br i1 %84, label %85, label %86

85:                                               ; preds = %71
  br label %94

86:                                               ; preds = %71
  %87 = load ptr, ptr %22, align 8
  %88 = getelementptr inbounds %struct._Bucket, ptr %87, i32 0, i32 2
  %89 = load ptr, ptr %88, align 8
  store ptr %89, ptr %19, align 8
  %90 = load ptr, ptr %19, align 8
  %91 = icmp ne ptr %90, null
  br i1 %91, label %93, label %92

92:                                               ; preds = %86
  br label %115

93:                                               ; preds = %86
  br label %94

94:                                               ; preds = %93, %85
  %95 = load ptr, ptr %22, align 8
  %96 = getelementptr inbounds %struct._Bucket, ptr %95, i32 1
  store ptr %96, ptr %22, align 8
  br label %67

97:                                               ; preds = %67
  br label %98

98:                                               ; preds = %97
  %99 = load ptr, ptr %17, align 8
  %100 = getelementptr inbounds %struct._zend_array, ptr %99, i32 0, i32 0
  %101 = getelementptr inbounds %struct._zend_refcounted_h, ptr %100, i32 0, i32 1
  %102 = load i32, ptr %101, align 4
  store i32 %102, ptr %15, align 4
  %103 = load i32, ptr %15, align 4
  %104 = and i32 %103, 1008
  %105 = and i32 %104, 64
  %106 = icmp ne i32 %105, 0
  br i1 %106, label %113, label %107

107:                                              ; preds = %98
  %108 = load ptr, ptr %17, align 8
  %109 = getelementptr inbounds %struct._zend_array, ptr %108, i32 0, i32 0
  store ptr %109, ptr %6, align 8
  %110 = load ptr, ptr %6, align 8
  %111 = load i32, ptr %110, align 4
  %112 = add i32 %111, 1
  store i32 %112, ptr %110, align 4
  br label %113

113:                                              ; preds = %107, %98
  %114 = load ptr, ptr %17, align 8
  store ptr %114, ptr %16, align 8
  br label %270

115:                                              ; preds = %92, %45
  %116 = load ptr, ptr %17, align 8
  store ptr %116, ptr %11, align 8
  %117 = load ptr, ptr %11, align 8
  %118 = getelementptr inbounds %struct._zend_array, ptr %117, i32 0, i32 5
  %119 = load i32, ptr %118, align 4
  %120 = call ptr @_zend_new_array(i32 noundef %119)
  store ptr %120, ptr %25, align 8
  br label %121

121:                                              ; preds = %115
  %122 = load ptr, ptr %17, align 8
  store ptr %122, ptr %26, align 8
  store ptr null, ptr %28, align 8
  store i32 0, ptr %29, align 4
  %123 = load ptr, ptr %26, align 8
  %124 = getelementptr inbounds %struct._zend_array, ptr %123, i32 0, i32 1
  %125 = load i32, ptr %124, align 8
  %126 = xor i32 %125, -1
  %127 = and i32 %126, 4
  %128 = zext i32 %127 to i64
  %129 = mul i64 %128, 4
  %130 = add i64 16, %129
  store i64 %130, ptr %30, align 8
  %131 = load ptr, ptr %26, align 8
  %132 = getelementptr inbounds %struct._zend_array, ptr %131, i32 0, i32 3
  %133 = load ptr, ptr %132, align 8
  %134 = load i32, ptr %29, align 4
  %135 = zext i32 %134 to i64
  %136 = load i64, ptr %30, align 8
  %137 = mul i64 %135, %136
  %138 = getelementptr inbounds i8, ptr %133, i64 %137
  store ptr %138, ptr %31, align 8
  %139 = load ptr, ptr %26, align 8
  %140 = getelementptr inbounds %struct._zend_array, ptr %139, i32 0, i32 4
  %141 = load i32, ptr %140, align 8
  %142 = load i32, ptr %29, align 4
  %143 = sub i32 %141, %142
  store i32 %143, ptr %32, align 4
  br label %144

144:                                              ; preds = %264, %121
  %145 = load i32, ptr %32, align 4
  %146 = icmp ugt i32 %145, 0
  br i1 %146, label %147, label %267

147:                                              ; preds = %144
  %148 = load ptr, ptr %31, align 8
  store ptr %148, ptr %33, align 8
  %149 = load ptr, ptr %26, align 8
  %150 = getelementptr inbounds %struct._zend_array, ptr %149, i32 0, i32 1
  %151 = load i32, ptr %150, align 8
  %152 = and i32 %151, 4
  %153 = icmp ne i32 %152, 0
  br i1 %153, label %154, label %161

154:                                              ; preds = %147
  %155 = load ptr, ptr %31, align 8
  %156 = getelementptr inbounds %struct._zval_struct, ptr %155, i32 1
  store ptr %156, ptr %31, align 8
  %157 = load i32, ptr %29, align 4
  %158 = zext i32 %157 to i64
  store i64 %158, ptr %27, align 8
  %159 = load i32, ptr %29, align 4
  %160 = add i32 %159, 1
  store i32 %160, ptr %29, align 4
  br label %172

161:                                              ; preds = %147
  %162 = load ptr, ptr %31, align 8
  store ptr %162, ptr %34, align 8
  %163 = load ptr, ptr %34, align 8
  %164 = getelementptr inbounds %struct._Bucket, ptr %163, i64 1
  %165 = getelementptr inbounds %struct._Bucket, ptr %164, i32 0, i32 0
  store ptr %165, ptr %31, align 8
  %166 = load ptr, ptr %34, align 8
  %167 = getelementptr inbounds %struct._Bucket, ptr %166, i32 0, i32 1
  %168 = load i64, ptr %167, align 8
  store i64 %168, ptr %27, align 8
  %169 = load ptr, ptr %34, align 8
  %170 = getelementptr inbounds %struct._Bucket, ptr %169, i32 0, i32 2
  %171 = load ptr, ptr %170, align 8
  store ptr %171, ptr %28, align 8
  br label %172

172:                                              ; preds = %161, %154
  %173 = load ptr, ptr %33, align 8
  store ptr %173, ptr %13, align 8
  %174 = load ptr, ptr %13, align 8
  %175 = getelementptr inbounds %struct._zval_struct, ptr %174, i32 0, i32 1
  %176 = load i8, ptr %175, align 8
  %177 = zext i8 %176 to i32
  %178 = icmp eq i32 %177, 0
  %179 = xor i1 %178, true
  %180 = xor i1 %179, true
  %181 = zext i1 %180 to i32
  %182 = sext i32 %181 to i64
  %183 = icmp ne i64 %182, 0
  br i1 %183, label %184, label %185

184:                                              ; preds = %172
  br label %264

185:                                              ; preds = %172
  %186 = load i64, ptr %27, align 8
  store i64 %186, ptr %18, align 8
  %187 = load ptr, ptr %28, align 8
  store ptr %187, ptr %19, align 8
  %188 = load ptr, ptr %33, align 8
  store ptr %188, ptr %20, align 8
  %189 = load ptr, ptr %19, align 8
  %190 = icmp ne ptr %189, null
  br i1 %190, label %212, label %191

191:                                              ; preds = %185
  %192 = load i64, ptr %18, align 8
  %193 = call ptr @zend_long_to_str(i64 noundef %192)
  store ptr %193, ptr %19, align 8
  %194 = load ptr, ptr %19, align 8
  store ptr %194, ptr %5, align 8
  %195 = load ptr, ptr %5, align 8
  %196 = getelementptr inbounds %struct._zend_refcounted_h, ptr %195, i32 0, i32 1
  %197 = load i32, ptr %196, align 4
  store i32 %197, ptr %3, align 4
  %198 = load i32, ptr %3, align 4
  %199 = and i32 %198, 1008
  %200 = and i32 %199, 64
  %201 = icmp ne i32 %200, 0
  br i1 %201, label %210, label %202

202:                                              ; preds = %191
  %203 = load ptr, ptr %5, align 8
  store ptr %203, ptr %2, align 8
  %204 = load ptr, ptr %2, align 8
  %205 = load i32, ptr %204, align 4
  %206 = icmp ugt i32 %205, 0
  call void @llvm.assume(i1 %206)
  %207 = load ptr, ptr %2, align 8
  %208 = load i32, ptr %207, align 4
  %209 = add i32 %208, -1
  store i32 %209, ptr %207, align 4
  store i32 %209, ptr %4, align 4
  br label %211

210:                                              ; preds = %191
  store i32 1, ptr %4, align 4
  br label %211

211:                                              ; preds = %210, %202
  br label %212

212:                                              ; preds = %211, %185
  br label %213

213:                                              ; preds = %212
  %214 = load ptr, ptr %20, align 8
  %215 = getelementptr inbounds %struct._zval_struct, ptr %214, i32 0, i32 1
  %216 = load i32, ptr %215, align 8
  %217 = and i32 %216, 65280
  %218 = icmp ne i32 %217, 0
  br i1 %218, label %219, label %258

219:                                              ; preds = %213
  %220 = load ptr, ptr %20, align 8
  store ptr %220, ptr %14, align 8
  %221 = load ptr, ptr %14, align 8
  %222 = getelementptr inbounds %struct._zval_struct, ptr %221, i32 0, i32 1
  %223 = load i8, ptr %222, align 8
  %224 = zext i8 %223 to i32
  %225 = icmp eq i32 %224, 10
  br i1 %225, label %226, label %245

226:                                              ; preds = %219
  %227 = load ptr, ptr %20, align 8
  store ptr %227, ptr %10, align 8
  %228 = load ptr, ptr %10, align 8
  %229 = load ptr, ptr %228, align 8
  store ptr %229, ptr %9, align 8
  %230 = load ptr, ptr %9, align 8
  %231 = load i32, ptr %230, align 4
  %232 = icmp eq i32 %231, 1
  br i1 %232, label %233, label %245

233:                                              ; preds = %226
  %234 = load ptr, ptr %20, align 8
  %235 = getelementptr inbounds %struct._zval_struct, ptr %234, i32 0, i32 0
  %236 = load ptr, ptr %235, align 8
  %237 = getelementptr inbounds %struct._zend_reference, ptr %236, i32 0, i32 1
  store ptr %237, ptr %20, align 8
  %238 = load ptr, ptr %20, align 8
  %239 = getelementptr inbounds %struct._zval_struct, ptr %238, i32 0, i32 1
  %240 = load i32, ptr %239, align 8
  %241 = and i32 %240, 65280
  %242 = icmp ne i32 %241, 0
  br i1 %242, label %244, label %243

243:                                              ; preds = %233
  br label %259

244:                                              ; preds = %233
  br label %245

245:                                              ; preds = %244, %226, %219
  %246 = load ptr, ptr %20, align 8
  store ptr %246, ptr %8, align 8
  %247 = load ptr, ptr %8, align 8
  %248 = getelementptr inbounds %struct._zval_struct, ptr %247, i32 0, i32 1
  %249 = getelementptr inbounds %struct.anon.4, ptr %248, i32 0, i32 1
  %250 = load i8, ptr %249, align 1
  %251 = zext i8 %250 to i32
  %252 = icmp ne i32 %251, 0
  call void @llvm.assume(i1 %252)
  %253 = load ptr, ptr %8, align 8
  %254 = load ptr, ptr %253, align 8
  store ptr %254, ptr %7, align 8
  %255 = load ptr, ptr %7, align 8
  %256 = load i32, ptr %255, align 4
  %257 = add i32 %256, 1
  store i32 %257, ptr %255, align 4
  br label %258

258:                                              ; preds = %245, %213
  br label %259

259:                                              ; preds = %258, %243
  %260 = load ptr, ptr %25, align 8
  %261 = load ptr, ptr %19, align 8
  %262 = load ptr, ptr %20, align 8
  %263 = call ptr @zend_hash_update(ptr noundef %260, ptr noundef %261, ptr noundef %262)
  br label %264

264:                                              ; preds = %259, %184
  %265 = load i32, ptr %32, align 4
  %266 = add i32 %265, -1
  store i32 %266, ptr %32, align 4
  br label %144

267:                                              ; preds = %144
  br label %268

268:                                              ; preds = %267
  %269 = load ptr, ptr %25, align 8
  store ptr %269, ptr %16, align 8
  br label %270

270:                                              ; preds = %268, %113
  %271 = load ptr, ptr %16, align 8
  ret ptr %271
}