; Function Attrs: nounwind uwtable
define noundef ptr @zend_symtable_to_proptable(ptr noundef %0) local_unnamed_addr #0 {
  %2 = getelementptr inbounds i8, ptr %0, i64 8
  %3 = load i32, ptr %2, align 8
  %4 = and i32 %3, 4
  %.not = icmp eq i32 %4, 0
  br i1 %.not, label %5, label %.loopexit88

5:                                                ; preds = %1
  %6 = getelementptr inbounds i8, ptr %0, i64 16
  %7 = load ptr, ptr %6, align 8
  %8 = getelementptr inbounds i8, ptr %0, i64 24
  %9 = load i32, ptr %8, align 8
  %10 = zext i32 %9 to i64
  %11 = getelementptr inbounds %struct._Bucket, ptr %7, i64 %10
  %.not7989 = icmp eq i32 %9, 0
  br i1 %.not7989, label %._crit_edge, label %.lr.ph

.lr.ph:                                           ; preds = %5, %18
  %.07890 = phi ptr [ %19, %18 ], [ %7, %5 ]
  %12 = getelementptr inbounds i8, ptr %.07890, i64 8
  %13 = load i8, ptr %12, align 8
  %14 = icmp eq i8 %13, 0
  br i1 %14, label %18, label %15

15:                                               ; preds = %.lr.ph
  %16 = getelementptr inbounds i8, ptr %.07890, i64 24
  %17 = load ptr, ptr %16, align 8
  %.not81 = icmp eq ptr %17, null
  br i1 %.not81, label %.loopexit88, label %18

18:                                               ; preds = %15, %.lr.ph
  %19 = getelementptr inbounds i8, ptr %.07890, i64 32
  %.not79 = icmp eq ptr %19, %11
  br i1 %.not79, label %._crit_edge, label %.lr.ph

._crit_edge:                                      ; preds = %18, %5
  %20 = getelementptr inbounds i8, ptr %0, i64 4
  %21 = load i32, ptr %20, align 4
  %22 = and i32 %21, 64
  %.not80 = icmp eq i32 %22, 0
  br i1 %.not80, label %23, label %.loopexit

23:                                               ; preds = %._crit_edge
  %24 = load i32, ptr %0, align 4
  %25 = add i32 %24, 1
  store i32 %25, ptr %0, align 4
  br label %.loopexit

.loopexit88:                                      ; preds = %15, %1
  %26 = getelementptr inbounds i8, ptr %0, i64 28
  %27 = load i32, ptr %26, align 4
  %28 = tail call noalias ptr @_emalloc_56() #27
  store <4 x i32> <i32 1, i32 7, i32 8, i32 -2>, ptr %28, align 4
  %29 = getelementptr inbounds i8, ptr %28, i64 16
  store ptr getelementptr inbounds ([2 x i32], ptr @uninitialized_bucket, i64 1, i64 0), ptr %29, align 8
  %30 = getelementptr inbounds i8, ptr %28, i64 24
  store i32 0, ptr %30, align 8
  %31 = getelementptr inbounds i8, ptr %28, i64 28
  store i32 0, ptr %31, align 4
  %32 = getelementptr inbounds i8, ptr %28, i64 36
  store i32 0, ptr %32, align 4
  %33 = getelementptr inbounds i8, ptr %28, i64 40
  store i64 -9223372036854775808, ptr %33, align 8
  %34 = getelementptr inbounds i8, ptr %28, i64 48
  store ptr @zval_ptr_dtor, ptr %34, align 8
  %35 = icmp ult i32 %27, 9
  br i1 %35, label %_zend_new_array.exit, label %36

36:                                               ; preds = %.loopexit88
  %37 = icmp ugt i32 %27, 1073741824
  br i1 %37, label %38, label %39

38:                                               ; preds = %36
  tail call void (i32, ptr, ...) @zend_error_noreturn(i32 noundef 1, ptr noundef nonnull @.str, i32 noundef %27, i64 noundef 32, i64 noundef 32) #28
  unreachable

39:                                               ; preds = %36
  %40 = add nsw i32 %27, -1
  %41 = tail call i32 @llvm.ctlz.i32(i32 %40, i1 true), !range !5
  %42 = xor i32 %41, 31
  %43 = shl nuw nsw i32 2, %42
  br label %_zend_new_array.exit

_zend_new_array.exit:                             ; preds = %.loopexit88, %39
  %.0.i = phi i32 [ %43, %39 ], [ 8, %.loopexit88 ]
  %44 = getelementptr inbounds i8, ptr %28, i64 32
  store i32 %.0.i, ptr %44, align 8
  %45 = getelementptr inbounds i8, ptr %0, i64 24
  %46 = load i32, ptr %45, align 8
  %.not8291 = icmp eq i32 %46, 0
  br i1 %.not8291, label %.loopexit, label %.lr.ph96.preheader

.lr.ph96.preheader:                               ; preds = %_zend_new_array.exit
  %47 = getelementptr inbounds i8, ptr %0, i64 16
  %48 = load ptr, ptr %47, align 8
  br label %.lr.ph96

.lr.ph96:                                         ; preds = %.lr.ph96.preheader, %99
  %.06895 = phi i32 [ %100, %99 ], [ %46, %.lr.ph96.preheader ]
  %.06994 = phi ptr [ %.1, %99 ], [ %48, %.lr.ph96.preheader ]
  %.07193 = phi i32 [ %.172, %99 ], [ 0, %.lr.ph96.preheader ]
  %.07392 = phi ptr [ %.174, %99 ], [ null, %.lr.ph96.preheader ]
  %49 = load i32, ptr %2, align 8
  %50 = and i32 %49, 4
  %.not83 = icmp eq i32 %50, 0
  br i1 %.not83, label %55, label %51

51:                                               ; preds = %.lr.ph96
  %52 = getelementptr inbounds i8, ptr %.06994, i64 16
  %53 = zext i32 %.07193 to i64
  %54 = add i32 %.07193, 1
  br label %61

55:                                               ; preds = %.lr.ph96
  %56 = getelementptr inbounds i8, ptr %.06994, i64 32
  %57 = getelementptr inbounds i8, ptr %.06994, i64 16
  %58 = load i64, ptr %57, align 8
  %59 = getelementptr inbounds i8, ptr %.06994, i64 24
  %60 = load ptr, ptr %59, align 8
  br label %61

61:                                               ; preds = %55, %51
  %.075 = phi i64 [ %53, %51 ], [ %58, %55 ]
  %.174 = phi ptr [ %.07392, %51 ], [ %60, %55 ]
  %.172 = phi i32 [ %54, %51 ], [ %.07193, %55 ]
  %.1 = phi ptr [ %52, %51 ], [ %56, %55 ]
  %62 = getelementptr inbounds i8, ptr %.06994, i64 8
  %63 = load i8, ptr %62, align 8
  %64 = icmp eq i8 %63, 0
  br i1 %64, label %99, label %65

65:                                               ; preds = %61
  %.not84 = icmp eq ptr %.174, null
  br i1 %.not84, label %66, label %75

66:                                               ; preds = %65
  %67 = tail call ptr @zend_long_to_str(i64 noundef %.075) #27
  %68 = getelementptr inbounds i8, ptr %67, i64 4
  %69 = load i32, ptr %68, align 4
  %70 = and i32 %69, 64
  %.not85 = icmp eq i32 %70, 0
  br i1 %.not85, label %71, label %75

71:                                               ; preds = %66
  %72 = load i32, ptr %67, align 4
  %73 = icmp ne i32 %72, 0
  tail call void @llvm.assume(i1 %73)
  %74 = add i32 %72, -1
  store i32 %74, ptr %67, align 4
  br label %75

75:                                               ; preds = %66, %65, %71
  %.070 = phi ptr [ %.174, %65 ], [ %67, %71 ], [ %67, %66 ]
  %76 = load i32, ptr %62, align 8
  %77 = and i32 %76, 65280
  %.not86 = icmp eq i32 %77, 0
  br i1 %.not86, label %97, label %78

78:                                               ; preds = %75
  %79 = and i32 %76, 255
  %80 = icmp eq i32 %79, 10
  br i1 %80, label %81, label %90

81:                                               ; preds = %78
  %82 = load ptr, ptr %.06994, align 8
  %83 = load i32, ptr %82, align 4
  %84 = icmp eq i32 %83, 1
  br i1 %84, label %85, label %90

85:                                               ; preds = %81
  %86 = getelementptr inbounds i8, ptr %82, i64 8
  %87 = getelementptr inbounds i8, ptr %82, i64 16
  %88 = load i32, ptr %87, align 8
  %89 = and i32 %88, 65280
  %.not87 = icmp eq i32 %89, 0
  br i1 %.not87, label %97, label %90

90:                                               ; preds = %85, %81, %78
  %.076 = phi ptr [ %86, %85 ], [ %.06994, %81 ], [ %.06994, %78 ]
  %91 = getelementptr inbounds i8, ptr %.076, i64 9
  %92 = load i8, ptr %91, align 1
  %93 = icmp ne i8 %92, 0
  tail call void @llvm.assume(i1 %93)
  %94 = load ptr, ptr %.076, align 8
  %95 = load i32, ptr %94, align 4
  %96 = add i32 %95, 1
  store i32 %96, ptr %94, align 4
  br label %97

97:                                               ; preds = %75, %90, %85
  %.177 = phi ptr [ %.076, %90 ], [ %86, %85 ], [ %.06994, %75 ]
  %98 = tail call ptr @zend_hash_update(ptr noundef nonnull %28, ptr noundef nonnull %.070, ptr noundef nonnull %.177)
  br label %99

99:                                               ; preds = %61, %97
  %100 = add i32 %.06895, -1
  %.not82 = icmp eq i32 %100, 0
  br i1 %.not82, label %.loopexit, label %.lr.ph96

.loopexit:                                        ; preds = %99, %_zend_new_array.exit, %._crit_edge, %23
  %.0 = phi ptr [ %0, %23 ], [ %0, %._crit_edge ], [ %28, %_zend_new_array.exit ], [ %28, %99 ]
  ret ptr %.0
}